target datalayout = "e-m:e-p270:32:32-p271:32:32-p272:64:64-i64:64-i128:128-f80:128-n8:16:32:64-S128"
target triple = "x86_64-pc-linux-gnu"

%struct._packet_info = type { ptr, ptr, i32, i32, %struct.nstime_t, %struct.nstime_t, %struct.nstime_t, i8, ptr, ptr, ptr, ptr, %struct._address, %struct._address, %struct._address, %struct._address, %struct._address, %struct._address, i32, ptr, i8, [3 x i8], %struct.anon, i32, i32, i32, i32, ptr, i8, ptr, ptr, i16, i16, i32, i32, i16, i32, i32, ptr, ptr, ptr, i8, i8, i16, i16, i16, i32, i16, i16, ptr, ptr, ptr, ptr, ptr, i32, i32 }
%struct.nstime_t = type { i64, i32 }
%struct._address = type { i32, i32, ptr, ptr }
%struct.anon = type { i8, [3 x i8] }

@.str.39 = private unnamed_addr constant [5 x i8] c"KNET\00", align 1

; Function Attrs: null_pointer_is_valid sspstrong uwtable
define internal i32 @dissect_knet_tcp(ptr noundef %0, ptr noundef %1, ptr noundef %2, ptr noundef %3) #0 {
  %5 = alloca i32, align 4
  %6 = alloca ptr, align 8
  %7 = alloca ptr, align 8
  %8 = alloca ptr, align 8
  %9 = alloca ptr, align 8
  %10 = alloca i32, align 4
  %11 = alloca i32, align 4
  store ptr %0, ptr %6, align 8
  store ptr %1, ptr %7, align 8
  store ptr %2, ptr %8, align 8
  store ptr %3, ptr %9, align 8
  %12 = load ptr, ptr %6, align 8
  %13 = call i32 @tvb_reported_length(ptr noundef %12)
  %14 = icmp ult i32 %13, 2
  br i1 %14, label %15, label %16

15:                                               ; preds = %4
  store i32 0, ptr %5, align 4
  br label %35

16:                                               ; preds = %4
  call void @llvm.lifetime.start.p0(i64 4, ptr %10) #4
  store i32 0, ptr %10, align 4
  %17 = load ptr, ptr %6, align 8
  %18 = call i32 @dissect_content_length_vle(ptr noundef %17, ptr noundef %10, ptr noundef null)
  %19 = icmp eq i32 %18, 0
  br i1 %19, label %20, label %21

20:                                               ; preds = %16
  store i32 0, ptr %5, align 4
  store i32 1, ptr %11, align 4
  br label %34

21:                                               ; preds = %16
  %22 = load ptr, ptr %7, align 8
  %23 = getelementptr inbounds nuw %struct._packet_info, ptr %22, i32 0, i32 1
  %24 = load ptr, ptr %23, align 8
  call void @col_clear(ptr noundef %24, i32 noundef 25)
  %25 = load ptr, ptr %7, align 8
  %26 = getelementptr inbounds nuw %struct._packet_info, ptr %25, i32 0, i32 1
  %27 = load ptr, ptr %26, align 8
  call void @col_set_str(ptr noundef %27, i32 noundef 35, ptr noundef @.str.39)
  %28 = load ptr, ptr %6, align 8
  %29 = load ptr, ptr %7, align 8
  %30 = load ptr, ptr %8, align 8
  %31 = load ptr, ptr %9, align 8
  call void @tcp_dissect_pdus(ptr noundef %28, ptr noundef %29, ptr noundef %30, i1 noundef zeroext true, i32 noundef 2, ptr noundef @get_knet_pdu_len, ptr noundef @dissect_knet_tcp_pdu, ptr noundef %31)
  %32 = load ptr, ptr %6, align 8
  %33 = call i32 @tvb_captured_length(ptr noundef %32)
  store i32 %33, ptr %5, align 4
  store i32 1, ptr %11, align 4
  br label %34

34:                                               ; preds = %21, %20
  call void @llvm.lifetime.end.p0(i64 4, ptr %10) #4
  br label %35

35:                                               ; preds = %34, %15
  %36 = load i32, ptr %5, align 4
  ret i32 %36
}