; Function Attrs: null_pointer_is_valid sspstrong uwtable
define internal i32 @dissect_knet_tcp(ptr noundef %0, ptr noundef %1, ptr noundef %2, ptr noundef %3) #0 {
  %5 = alloca i32, align 4
  %6 = tail call i32 @tvb_reported_length(ptr noundef %0)
  %7 = icmp ult i32 %6, 2
  br i1 %7, label %17, label %8

8:                                                ; preds = %4
  call void @llvm.lifetime.start.p0(i64 4, ptr nonnull %5) #4
  store i32 0, ptr %5, align 4
  %9 = call fastcc i32 @dissect_content_length_vle(ptr noundef %0, ptr noundef nonnull %5, ptr noundef null)
  %10 = icmp eq i32 %9, 0
  br i1 %10, label %16, label %11

11:                                               ; preds = %8
  %12 = getelementptr inbounds nuw i8, ptr %1, i64 8
  %13 = load ptr, ptr %12, align 8
  tail call void @col_clear(ptr noundef %13, i32 noundef 25)
  %14 = load ptr, ptr %12, align 8
  tail call void @col_set_str(ptr noundef %14, i32 noundef 35, ptr noundef nonnull @.str.39)
  tail call void @tcp_dissect_pdus(ptr noundef %0, ptr noundef %1, ptr noundef %2, i1 noundef zeroext true, i32 noundef 2, ptr noundef nonnull @get_knet_pdu_len, ptr noundef nonnull @dissect_knet_tcp_pdu, ptr noundef %3)
  %15 = tail call i32 @tvb_captured_length(ptr noundef %0)
  br label %16

16:                                               ; preds = %8, %11
  %.1 = phi i32 [ %15, %11 ], [ 0, %8 ]
  call void @llvm.lifetime.end.p0(i64 4, ptr nonnull %5) #4
  br label %17

17:                                               ; preds = %4, %16
  %.0 = phi i32 [ %.1, %16 ], [ 0, %4 ]
  ret i32 %.0
}